; Function Attrs: mustprogress nofree norecurse nosync nounwind willreturn memory(argmem: readwrite) uwtable
define dso_local void @_ZN28EvaluatedTargetPropertyEntryC2ERK14cmLinkImplItem19cmListFileBacktrace(ptr noundef nonnull writeonly align 8 captures(none) dereferenceable(49) initializes((0, 49)) %0, ptr noundef nonnull align 8 dereferenceable(104) %1, ptr noundef captures(none) %2) unnamed_addr #4 align 2 {
  store ptr %1, ptr %0, align 8, !tbaa !4
  %4 = getelementptr inbounds nuw i8, ptr %0, i64 8
  %5 = load ptr, ptr %2, align 8, !tbaa !9
  store ptr %5, ptr %4, align 8, !tbaa !9
  %6 = getelementptr inbounds nuw i8, ptr %0, i64 16
  store ptr null, ptr %6, align 8, !tbaa !14
  %7 = getelementptr inbounds nuw i8, ptr %2, i64 8
  %8 = load ptr, ptr %7, align 8, !tbaa !14
  store ptr null, ptr %7, align 8, !tbaa !14
  store ptr %8, ptr %6, align 8, !tbaa !14
  store ptr null, ptr %2, align 8, !tbaa !9
  %9 = getelementptr inbounds nuw i8, ptr %0, i64 24
  tail call void @llvm.memset.p0.i64(ptr noundef nonnull align 8 dereferenceable(25) %9, i8 0, i64 25, i1 false)
  ret void
}